Certificate:
    Data:
        Version: 3 (0x2)
        Serial Number: 0 (0x0)
        Signature Algorithm: sha1WithRSAEncryption
        Issuer: C=ES, ST=Madrid, L=Madrid, O=IPS Certification Authority s.l. ipsCA, OU=ipsCA, CN=ipsCA Global CA Root/emailAddress=global01@ipsca.com
        Validity
            Not Before: Sep  7 14:38:44 2009 GMT
            Not After : Dec 25 14:38:44 2029 GMT
        Subject: C=ES, ST=Madrid, L=Madrid, O=IPS Certification Authority s.l. ipsCA, OU=ipsCA, CN=ipsCA Global CA Root/emailAddress=global01@ipsca.com
        Subject Public Key Info:
            Public Key Algorithm: rsaEncryption
            RSA Public Key: (2048 bit)
                Modulus (2048 bit):
                    00:a7:ef:cc:80:30:b0:91:24:4f:b0:68:f8:c3:ca:
                    2d:15:38:55:58:82:e2:38:63:b0:f7:a3:92:6f:83:
                    b8:b0:5e:b0:8c:ac:54:b1:77:d0:50:e0:97:b3:90:
                    ad:8a:b3:1f:39:2b:45:56:f7:aa:e2:df:7c:b2:ec:
                    6f:53:2f:9a:cb:d0:e6:66:cb:c9:13:e8:72:e2:b4:
                    cd:31:57:87:12:b5:93:e8:fa:72:ce:ea:47:f2:8c:
                    b4:b0:63:d7:04:00:b7:64:36:39:97:e8:95:f1:88:
                    f9:71:0d:03:27:8c:61:cf:08:83:96:4f:83:c5:4e:
                    e8:5c:f8:06:70:f1:02:aa:1c:1e:a9:c8:aa:7e:e7:
                    5d:cd:8d:3c:14:6f:67:d0:1b:a9:23:48:8b:21:28:
                    3a:8a:4c:e6:11:31:f9:21:2e:b2:67:66:c6:29:6e:
                    94:93:cf:40:96:fc:b0:3d:bf:b2:b4:93:bf:56:71:
                    b6:a5:41:87:b0:58:b5:59:23:28:49:b8:98:f9:50:
                    1e:2d:15:28:0b:4c:ac:49:d1:84:a9:9b:9a:e7:72:
                    54:b7:38:d0:db:c9:fe:a9:73:d5:6d:10:cd:8e:75:
                    eb:fe:97:fd:80:3c:fc:b4:d8:48:f4:99:46:0b:88:
                    14:a4:b6:2e:db:4c:60:f4:21:c1:6c:80:95:14:d5:
                    af:d5
                Exponent: 65537 (0x10001)
        X509v3 extensions:
            X509v3 Subject Key Identifier: 
                15:A6:96:80:B1:15:4B:31:C3:C2:9C:F6:E7:13:0B:4B:F3:18:CD:86
            X509v3 Authority Key Identifier: 
                keyid:15:A6:96:80:B1:15:4B:31:C3:C2:9C:F6:E7:13:0B:4B:F3:18:CD:86
                DirName:/C=ES/ST=Madrid/L=Madrid/O=IPS Certification Authority s.l. ipsCA/OU=ipsCA/CN=ipsCA Global CA Root/emailAddress=global01@ipsca.com
                serial:00

            X509v3 Basic Constraints: 
                CA:TRUE
            X509v3 Key Usage: 
                Certificate Sign, CRL Sign
            X509v3 Extended Key Usage: 
                TLS Web Server Authentication, TLS Web Client Authentication, Code Signing, E-mail Protection, Time Stamping, Microsoft Encrypted File System
            X509v3 Subject Alternative Name: 
                email:global01@ipsca.com
            X509v3 Issuer Alternative Name: 
                email:global01@ipsca.com
            X509v3 CRL Distribution Points: 
                URI:http://crlglobal01.ipsca.com/crl/crlglobal01.crl

            Authority Information Access: 
                OCSP - URI:http://crlglobal01.ipsca.com

    Signature Algorithm: sha1WithRSAEncryption
        18:f4:ae:fe:80:0f:8e:c1:77:6f:a2:5a:47:48:9f:23:55:a1:
        53:6b:f9:5d:a7:30:a5:24:be:43:2f:f8:c1:d1:57:f9:3e:2c:
        80:25:cc:46:a9:36:f3:49:5b:1d:f6:7c:d7:63:b3:4d:3e:78:
        f6:a7:b4:02:77:f8:79:0d:3e:6a:cb:18:60:b8:fd:00:af:0c:
        dd:54:e3:54:8f:22:3d:f3:10:6f:11:0d:b5:1e:7a:8d:27:cc:
        08:b8:5b:c3:b8:1a:5f:2b:a7:60:3f:00:1c:f7:0f:5c:42:66:
        64:9e:87:12:80:70:89:e0:fa:57:28:0e:4e:1f:10:2f:d9:05:
        80:b6:80:2f:1c:69:f0:f6:b6:65:34:05:6f:ca:d9:3e:f8:d4:
        5d:37:32:c7:b8:2b:cc:ff:73:93:00:71:e0:01:c8:aa:43:bd:
        a9:f1:ce:fa:80:f9:f1:43:12:91:a6:65:e5:60:07:4d:47:ba:
        2b:2f:04:f6:4a:85:29:88:65:10:c9:b2:53:62:9c:6c:9b:60:
        5c:1a:1b:d3:ae:c5:1d:72:99:06:ff:05:cc:86:26:73:b4:d4:
        54:05:dd:1e:6b:00:3b:b7:89:e8:e3:91:02:20:12:eb:ef:e9:
        fe:0a:29:23:81:23:a3:00:da:70:cc:92:5f:37:23:d0:1c:7b:
        35:5c:03:7a
SHA1 Fingerprint=3C:71:D7:0E:35:A5:DA:A8:B2:E3:81:2D:C3:67:74:17:F5:99:0D:F3
-----BEGIN CERTIFICATE-----
MIIGBzCCBO+gAwIBAgIBADANBgkqhkiG9w0BAQUFADCBsjELMAkGA1UEBhMCRVMx
DzANBgNVBAgTBk1hZHJpZDEPMA0GA1UEBxMGTWFkcmlkMS8wLQYDVQQKEyZJUFMg
Q2VydGlmaWNhdGlvbiBBdXRob3JpdHkgcy5sLiBpcHNDQTEOMAwGA1UECxMFaXBz
Q0ExHTAbBgNVBAMTFGlwc0NBIEdsb2JhbCBDQSBSb290MSEwHwYJKoZIhvcNAQkB
FhJnbG9iYWwwMUBpcHNjYS5jb20wHhcNMDkwOTA3MTQzODQ0WhcNMjkxMjI1MTQz
ODQ0WjCBsjELMAkGA1UEBhMCRVMxDzANBgNVBAgTBk1hZHJpZDEPMA0GA1UEBxMG
TWFkcmlkMS8wLQYDVQQKEyZJUFMgQ2VydGlmaWNhdGlvbiBBdXRob3JpdHkgcy5s
LiBpcHNDQTEOMAwGA1UECxMFaXBzQ0ExHTAbBgNVBAMTFGlwc0NBIEdsb2JhbCBD
QSBSb290MSEwHwYJKoZIhvcNAQkBFhJnbG9iYWwwMUBpcHNjYS5jb20wggEiMA0G
CSqGSIb3DQEBAQUAA4IBDwAwggEKAoIBAQCn78yAMLCRJE+waPjDyi0VOFVYguI4
Y7D3o5Jvg7iwXrCMrFSxd9BQ4JezkK2Ksx85K0VW96ri33yy7G9TL5rL0OZmy8kT
6HLitM0xV4cStZPo+nLO6kfyjLSwY9cEALdkNjmX6JXxiPlxDQMnjGHPCIOWT4PF
Tuhc+AZw8QKqHB6pyKp+513NjTwUb2fQG6kjSIshKDqKTOYRMfkhLrJnZsYpbpST
z0CW/LA9v7K0k79WcbalQYewWLVZIyhJuJj5UB4tFSgLTKxJ0YSpm5rnclS3ONDb
yf6pc9VtEM2Odev+l/2APPy02Ej0mUYLiBSkti7bTGD0IcFsgJUU1a/VAgMBAAGj
ggIkMIICIDAdBgNVHQ4EFgQUFaaWgLEVSzHDwpz25xMLS/MYzYYwgd8GA1UdIwSB
1zCB1IAUFaaWgLEVSzHDwpz25xMLS/MYzYahgbikgbUwgbIxCzAJBgNVBAYTAkVT
MQ8wDQYDVQQIEwZNYWRyaWQxDzANBgNVBAcTBk1hZHJpZDEvMC0GA1UEChMmSVBT
IENlcnRpZmljYXRpb24gQXV0aG9yaXR5IHMubC4gaXBzQ0ExDjAMBgNVBAsTBWlw
c0NBMR0wGwYDVQQDExRpcHNDQSBHbG9iYWwgQ0EgUm9vdDEhMB8GCSqGSIb3DQEJ
ARYSZ2xvYmFsMDFAaXBzY2EuY29tggEAMAwGA1UdEwQFMAMBAf8wCwYDVR0PBAQD
AgEGMEcGA1UdJQRAMD4GCCsGAQUFBwMBBggrBgEFBQcDAgYIKwYBBQUHAwMGCCsG
AQUFBwMEBggrBgEFBQcDCAYKKwYBBAGCNwoDBDAdBgNVHREEFjAUgRJnbG9iYWww
MUBpcHNjYS5jb20wHQYDVR0SBBYwFIESZ2xvYmFsMDFAaXBzY2EuY29tMEEGA1Ud
HwQ6MDgwNqA0oDKGMGh0dHA6Ly9jcmxnbG9iYWwwMS5pcHNjYS5jb20vY3JsL2Ny
bGdsb2JhbDAxLmNybDA4BggrBgEFBQcBAQQsMCowKAYIKwYBBQUHMAGGHGh0dHA6
Ly9jcmxnbG9iYWwwMS5pcHNjYS5jb20wDQYJKoZIhvcNAQEFBQADggEBABj0rv6A
D47Bd2+iWkdInyNVoVNr+V2nMKUkvkMv+MHRV/k+LIAlzEapNvNJWx32fNdjs00+
ePantAJ3+HkNPmrLGGC4/QCvDN1U41SPIj3zEG8RDbUeeo0nzAi4W8O4Gl8rp2A/
ABz3D1xCZmSehxKAcIng+lcoDk4fEC/ZBYC2gC8cafD2tmU0BW/K2T741F03Mse4
K8z/c5MAceAByKpDvanxzvqA+fFDEpGmZeVgB01HuisvBPZKhSmIZRDJslNinGyb
YFwaG9OuxR1ymQb/BcyGJnO01FQF3R5rADu3iejjkQIgEuvv6f4KKSOBI6MA2nDM
kl83I9AcezVcA3o=
-----END CERTIFICATE-----
