Certificate:
    Data:
        Version: 3 (0x2)
        Serial Number:
            07:7e:52:93:7b:e0:15:e3:57:f0:69:8c:cb:ec:0c
        Signature Algorithm: sha1WithRSAEncryption
        Issuer: C=CO, O=Sociedad Cameral de Certificaci\xC3\xB3n Digital - Certic\xC3\xA1mara S.A., CN=AC Ra\xC3\xADz Certic\xC3\xA1mara S.A.
        Validity
            Not Before: Nov 27 20:46:29 2006 GMT
            Not After : Apr  2 21:42:02 2030 GMT
        Subject: C=CO, O=Sociedad Cameral de Certificaci\xC3\xB3n Digital - Certic\xC3\xA1mara S.A., CN=AC Ra\xC3\xADz Certic\xC3\xA1mara S.A.
        Subject Public Key Info:
            Public Key Algorithm: rsaEncryption
            RSA Public Key: (4096 bit)
                Modulus (4096 bit):
                    00:ab:6b:89:a3:53:cc:48:23:08:fb:c3:cf:51:96:
                    08:2e:b8:08:7a:6d:3c:90:17:86:a9:e9:ed:2e:13:
                    34:47:b2:d0:70:dc:c9:3c:d0:8d:ca:ee:4b:17:ab:
                    d0:85:b0:a7:23:04:cb:a8:a2:fc:e5:75:db:40:ca:
                    62:89:8f:50:9e:01:3d:26:5b:18:84:1c:cb:7c:37:
                    b7:7d:ec:d3:7f:73:19:b0:6a:b2:d8:88:8a:2d:45:
                    74:a8:f7:b3:b8:c0:d4:da:cd:22:89:74:4d:5a:15:
                    39:73:18:74:4f:b5:eb:99:a7:c1:1e:88:b4:c2:93:
                    90:63:97:f3:a7:a7:12:b2:09:22:07:33:d9:91:cd:
                    0e:9c:1f:0e:20:c7:ee:bb:33:8d:8f:c2:d2:58:a7:
                    5f:fd:65:37:e2:88:c2:d8:8f:86:75:5e:f9:2d:a7:
                    87:33:f2:78:37:2f:8b:bc:1d:86:37:39:b1:94:f2:
                    d8:bc:4a:9c:83:18:5a:06:fc:f3:d4:d4:ba:8c:15:
                    09:25:f0:f9:b6:8d:04:7e:17:12:33:6b:57:48:4c:
                    4f:db:26:1e:eb:cc:90:e7:8b:f9:68:7c:70:0f:a3:
                    2a:d0:3a:38:df:37:97:e2:5b:de:80:61:d3:80:d8:
                    91:83:42:5a:4c:04:89:68:11:3c:ac:5f:68:80:41:
                    cc:60:42:ce:0d:5a:2a:0c:0f:9b:30:c0:a6:f0:86:
                    db:ab:49:d7:97:6d:48:8b:f9:03:c0:52:67:9b:12:
                    f7:c2:f2:2e:98:65:42:d9:d6:9a:e3:d0:19:31:0c:
                    ad:87:d5:57:02:7a:30:e8:86:26:fb:8f:23:8a:54:
                    87:e4:bf:3c:ee:eb:c3:75:48:5f:1e:39:6f:81:62:
                    6c:c5:2d:c4:17:54:19:b7:37:8d:9c:37:91:c8:f6:
                    0b:d5:ea:63:6f:83:ac:38:c2:f3:3f:de:9a:fb:e1:
                    23:61:f0:c8:26:cb:36:c8:a1:f3:30:8f:a4:a3:a2:
                    a1:dd:53:b3:de:f0:9a:32:1f:83:91:79:30:c1:a9:
                    1f:53:9b:53:a2:15:53:3f:dd:9d:b3:10:3b:48:7d:
                    89:0f:fc:ed:03:f5:fb:25:64:75:0e:17:19:0d:8f:
                    00:16:67:79:7a:40:fc:2d:59:07:d9:90:fa:9a:ad:
                    3d:dc:80:8a:e6:5c:35:a2:67:4c:11:6b:b1:f8:80:
                    64:00:2d:6f:22:61:c5:ac:4b:26:e5:5a:10:82:9b:
                    a4:83:7b:34:f7:9e:89:91:20:97:8e:b7:42:c7:66:
                    c3:d0:e9:a4:d6:f5:20:8d:c4:c3:95:ac:44:0a:9d:
                    5b:73:3c:26:3d:2f:4a:be:a7:c9:a7:10:1e:fb:9f:
                    50:69:f3
                Exponent: 65537 (0x10001)
        X509v3 extensions:
            X509v3 Basic Constraints: critical
                CA:TRUE
            X509v3 Key Usage: critical
                Certificate Sign, CRL Sign
            X509v3 Subject Key Identifier: 
                D1:09:D0:E9:D7:CE:79:74:54:F9:3A:30:B3:F4:6D:2C:03:03:1B:68
            X509v3 Certificate Policies: 
                Policy: X509v3 Any Policy
                  CPS: http://www.certicamara.com/dpc/
                  User Notice:
                    Explicit Text: Limitaciones de garantías de este certificado se pueden encontrar en la DPC.

    Signature Algorithm: sha1WithRSAEncryption
        5c:94:b5:b8:45:91:4d:8e:61:1f:03:28:0f:53:7c:e6:a4:59:
        a9:b3:8a:7a:c5:b0:ff:08:7c:2c:a3:71:1c:21:13:67:a1:95:
        12:40:35:83:83:8f:74:db:33:5c:f0:49:76:0a:81:52:dd:49:
        d4:9a:32:33:ef:9b:a7:cb:75:e5:7a:cb:97:12:90:5c:ba:7b:
        c5:9b:df:bb:39:23:c8:ff:98:ce:0a:4d:22:01:48:07:7e:8a:
        c0:d5:20:42:94:44:ef:bf:77:a2:89:67:48:1b:40:03:05:a1:
        89:ec:cf:62:e3:3d:25:76:66:bf:26:b7:bb:22:be:6f:ff:39:
        57:74:ba:7a:c9:01:95:c1:95:51:e8:ab:2c:f8:b1:86:20:e9:
        3f:cb:35:5b:d2:17:e9:2a:fe:83:13:17:40:ee:88:62:65:5b:
        d5:3b:60:e9:7b:3c:b8:c9:d5:7f:36:02:25:aa:68:c2:31:15:
        b7:30:65:eb:7f:1d:48:79:b1:cf:39:e2:42:80:16:d3:f5:93:
        23:fc:4c:97:c9:5a:37:6c:7c:22:d8:4a:cd:d2:8e:36:83:39:
        91:90:10:c8:f1:c9:35:7e:3f:b8:d3:81:c6:20:64:1a:b6:50:
        c2:21:a4:78:dc:d0:2f:3b:64:93:74:f0:96:90:f1:ef:fb:09:
        5a:34:40:96:f0:36:12:c1:a3:74:8c:93:7e:41:de:77:8b:ec:
        86:d9:d2:0f:3f:2d:d1:cc:40:a2:89:66:48:1e:20:b3:9c:23:
        59:73:a9:44:73:bc:24:79:90:56:37:b3:c6:29:7e:a3:0f:f1:
        29:39:ef:7e:5c:28:32:70:35:ac:da:b8:c8:75:66:fc:9b:4c:
        39:47:8e:1b:6f:9b:4d:02:54:22:33:ef:61:ba:9e:29:84:ef:
        4e:4b:33:47:76:97:6a:cb:7e:5f:fd:15:a6:9e:42:43:5b:66:
        5a:8a:88:0d:f7:16:b9:3f:51:65:2b:66:6a:8b:d1:38:52:a2:
        d6:46:11:fa:fc:9a:1c:74:9e:8f:97:0b:02:4f:64:c6:f5:68:
        d3:4b:2d:ff:a4:37:1e:8b:3f:bf:44:be:61:46:a1:84:3d:08:
        27:4c:81:20:77:89:08:ea:67:40:5e:6c:08:51:5f:34:5a:8c:
        96:68:cd:d7:f7:89:c2:1c:d3:32:00:af:52:cb:d3:60:5b:2a:
        3a:47:7e:6b:30:33:a1:62:29:7f:4a:b9:e1:2d:e7:14:23:0e:
        0e:18:47:e1:79:fc:15:55:d0:b1:fc:25:71:63:75:33:1c:23:
        2b:af:5c:d9:ed:47:77:60:0e:3b:0f:1e:d2:c0:dc:64:05:89:
        fc:78:d6:5c:2c:26:43:a9
SHA1 Fingerprint=CB:A1:C5:F8:B0:E3:5E:B8:B9:45:12:D3:F9:34:A2:E9:06:10:D3:36
-----BEGIN CERTIFICATE-----
MIIGZjCCBE6gAwIBAgIPB35Sk3vgFeNX8GmMy+wMMA0GCSqGSIb3DQEBBQUAMHsx
CzAJBgNVBAYTAkNPMUcwRQYDVQQKDD5Tb2NpZWRhZCBDYW1lcmFsIGRlIENlcnRp
ZmljYWNpw7NuIERpZ2l0YWwgLSBDZXJ0aWPDoW1hcmEgUy5BLjEjMCEGA1UEAwwa
QUMgUmHDrXogQ2VydGljw6FtYXJhIFMuQS4wHhcNMDYxMTI3MjA0NjI5WhcNMzAw
NDAyMjE0MjAyWjB7MQswCQYDVQQGEwJDTzFHMEUGA1UECgw+U29jaWVkYWQgQ2Ft
ZXJhbCBkZSBDZXJ0aWZpY2FjacOzbiBEaWdpdGFsIC0gQ2VydGljw6FtYXJhIFMu
QS4xIzAhBgNVBAMMGkFDIFJhw616IENlcnRpY8OhbWFyYSBTLkEuMIICIjANBgkq
hkiG9w0BAQEFAAOCAg8AMIICCgKCAgEAq2uJo1PMSCMI+8PPUZYILrgIem08kBeG
qentLhM0R7LQcNzJPNCNyu5LF6vQhbCnIwTLqKL85XXbQMpiiY9QngE9JlsYhBzL
fDe3fezTf3MZsGqy2IiKLUV0qPezuMDU2s0iiXRNWhU5cxh0T7XrmafBHoi0wpOQ
Y5fzp6cSsgkiBzPZkc0OnB8OIMfuuzONj8LSWKdf/WU34ojC2I+GdV75LaeHM/J4
Ny+LvB2GNzmxlPLYvEqcgxhaBvzz1NS6jBUJJfD5to0EfhcSM2tXSExP2yYe68yQ
54v5aHxwD6Mq0Do43zeX4lvegGHTgNiRg0JaTASJaBE8rF9ogEHMYELODVoqDA+b
MMCm8Ibbq0nXl21Ii/kDwFJnmxL3wvIumGVC2daa49AZMQyth9VXAnow6IYm+48j
ilSH5L887uvDdUhfHjlvgWJsxS3EF1QZtzeNnDeRyPYL1epjb4OsOMLzP96a++Ej
YfDIJss2yKHzMI+ko6Kh3VOz3vCaMh+DkXkwwakfU5tTohVTP92dsxA7SH2JD/zt
A/X7JWR1DhcZDY8AFmd5ekD8LVkH2ZD6mq093ICK5lw1omdMEWux+IBkAC1vImHF
rEsm5VoQgpukg3s0956JkSCXjrdCx2bD0Omk1vUgjcTDlaxECp1bczwmPS9KvqfJ
pxAe+59QafMCAwEAAaOB5jCB4zAPBgNVHRMBAf8EBTADAQH/MA4GA1UdDwEB/wQE
AwIBBjAdBgNVHQ4EFgQU0QnQ6dfOeXRU+Tows/RtLAMDG2gwgaAGA1UdIASBmDCB
lTCBkgYEVR0gADCBiTArBggrBgEFBQcCARYfaHR0cDovL3d3dy5jZXJ0aWNhbWFy
YS5jb20vZHBjLzBaBggrBgEFBQcCAjBOGkxMaW1pdGFjaW9uZXMgZGUgZ2FyYW50
7WFzIGRlIGVzdGUgY2VydGlmaWNhZG8gc2UgcHVlZGVuIGVuY29udHJhciBlbiBs
YSBEUEMuMA0GCSqGSIb3DQEBBQUAA4ICAQBclLW4RZFNjmEfAygPU3zmpFmps4p6
xbD/CHwso3EcIRNnoZUSQDWDg4902zNc8El2CoFS3UnUmjIz75uny3XlesuXEpBc
unvFm9+7OSPI/5jOCk0iAUgHforA1SBClETvv3eiiWdIG0ADBaGJ7M9i4z0ldma/
Jre7Ir5v/zlXdLp6yQGVwZVR6Kss+LGGIOk/yzVb0hfpKv6DExdA7ohiZVvVO2Dp
ezy4ydV/NgIlqmjCMRW3MGXrfx1IebHPOeJCgBbT9ZMj/EyXyVo3bHwi2ErN0o42
gzmRkBDI8ck1fj+404HGIGQatlDCIaR43NAvO2STdPCWkPHv+wlaNECW8DYSwaN0
jJN+Qd53i+yG2dIPPy3RzECiiWZIHiCznCNZc6lEc7wkeZBWN7PGKX6jD/EpOe9+
XCgycDWs2rjIdWb8m0w5R44bb5tNAlQiM+9hup4phO9OSzNHdpdqy35f/RWmnkJD
W2ZaiogN9xa5P1FlK2Zqi9E4UqLWRhH6/JocdJ6PlwsCT2TG9WjTSy3/pDceiz+/
RL5hRqGEPQgnTIEgd4kI6mdAXmwIUV80WoyWaM3X94nCHNMyAK9Sy9NgWyo6R35r
MDOhYil/SrnhLecUIw4OGEfhefwVVdCx/CVxY3UzHCMrr1zZ7Ud3YA47Dx7SwNxk
BYn8eNZcLCZDqQ==
-----END CERTIFICATE-----
